target datalayout = "e-m:e-p270:32:32-p271:32:32-p272:64:64-i64:64-i128:128-f80:128-n8:16:32:64-S128"
target triple = "x86_64-pc-linux-gnu"

@proto_prism = internal global i32 0, align 4
@prism_handle = internal global ptr null, align 8
@.str.3 = private unnamed_addr constant [11 x i8] c"wtap_encap\00", align 1
@.str.4 = private unnamed_addr constant [5 x i8] c"wlan\00", align 1
@ieee80211_handle = internal global ptr null, align 8
@.str.5 = private unnamed_addr constant [11 x i8] c"wlan_radio\00", align 1
@ieee80211_radio_handle = internal global ptr null, align 8
@.str.6 = private unnamed_addr constant [8 x i8] c"wlancap\00", align 1
@wlancap_handle = internal global ptr null, align 8
@.str.7 = private unnamed_addr constant [10 x i8] c"ieee80211\00", align 1
@ieee80211_cap_handle = internal global ptr null, align 8
@wlancap_cap_handle = internal global ptr null, align 8

; Function Attrs: null_pointer_is_valid sspstrong uwtable
define hidden void @proto_reg_handoff_ieee80211_prism() #0 {
  %1 = alloca ptr, align 8
  call void @llvm.lifetime.start.p0(i64 8, ptr %1) #9
  %2 = load ptr, ptr @prism_handle, align 8
  call void @dissector_add_uint(ptr noundef @.str.3, i32 noundef 21, ptr noundef %2)
  %3 = load i32, ptr @proto_prism, align 4
  %4 = call ptr @find_dissector_add_dependency(ptr noundef @.str.4, i32 noundef %3)
  store ptr %4, ptr @ieee80211_handle, align 8
  %5 = load i32, ptr @proto_prism, align 4
  %6 = call ptr @find_dissector_add_dependency(ptr noundef @.str.5, i32 noundef %5)
  store ptr %6, ptr @ieee80211_radio_handle, align 8
  %7 = load i32, ptr @proto_prism, align 4
  %8 = call ptr @find_dissector_add_dependency(ptr noundef @.str.6, i32 noundef %7)
  store ptr %8, ptr @wlancap_handle, align 8
  %9 = load i32, ptr @proto_prism, align 4
  %10 = call ptr @create_capture_dissector_handle(ptr noundef @capture_prism, i32 noundef %9)
  store ptr %10, ptr %1, align 8
  %11 = load ptr, ptr %1, align 8
  call void @capture_dissector_add_uint(ptr noundef @.str.3, i32 noundef 21, ptr noundef %11)
  %12 = call ptr @find_capture_dissector(ptr noundef @.str.7)
  store ptr %12, ptr @ieee80211_cap_handle, align 8
  %13 = call ptr @find_capture_dissector(ptr noundef @.str.6)
  store ptr %13, ptr @wlancap_cap_handle, align 8
  call void @llvm.lifetime.end.p0(i64 8, ptr %1) #9
  ret void
}