; Function Attrs: null_pointer_is_valid sspstrong uwtable
define hidden void @proto_reg_handoff_ieee80211_prism() local_unnamed_addr #0 {
  %1 = load ptr, ptr @prism_handle, align 8
  tail call void @dissector_add_uint(ptr noundef nonnull @.str.3, i32 noundef 21, ptr noundef %1)
  %2 = load i32, ptr @proto_prism, align 4
  %3 = tail call ptr @find_dissector_add_dependency(ptr noundef nonnull @.str.4, i32 noundef %2)
  store ptr %3, ptr @ieee80211_handle, align 8
  %4 = load i32, ptr @proto_prism, align 4
  %5 = tail call ptr @find_dissector_add_dependency(ptr noundef nonnull @.str.5, i32 noundef %4)
  store ptr %5, ptr @ieee80211_radio_handle, align 8
  %6 = load i32, ptr @proto_prism, align 4
  %7 = tail call ptr @find_dissector_add_dependency(ptr noundef nonnull @.str.6, i32 noundef %6)
  store ptr %7, ptr @wlancap_handle, align 8
  %8 = load i32, ptr @proto_prism, align 4
  %9 = tail call ptr @create_capture_dissector_handle(ptr noundef nonnull @capture_prism, i32 noundef %8)
  tail call void @capture_dissector_add_uint(ptr noundef nonnull @.str.3, i32 noundef 21, ptr noundef %9)
  %10 = tail call ptr @find_capture_dissector(ptr noundef nonnull @.str.7)
  store ptr %10, ptr @ieee80211_cap_handle, align 8
  %11 = tail call ptr @find_capture_dissector(ptr noundef nonnull @.str.6)
  store ptr %11, ptr @wlancap_cap_handle, align 8
  ret void
}